target datalayout = "e-m:e-p270:32:32-p271:32:32-p272:64:64-i64:64-i128:128-f80:128-n8:16:32:64-S128"
target triple = "x86_64-pc-linux-gnu"

%struct.geod_geodesicline = type { double, double, double, double, double, double, double, double, double, double, double, double, double, double, double, double, double, double, double, double, double, double, double, double, double, double, double, double, double, double, [7 x double], [7 x double], [7 x double], [6 x double], [6 x double], i32 }
%struct.geod_polygon = type { double, double, double, double, [2 x double], [2 x double], i32, i32, i32 }

; Function Attrs: nounwind uwtable
define internal i32 @transitdirect(double noundef %0, double noundef %1) #0 {
  %3 = alloca double, align 8
  %4 = alloca double, align 8
  store double %0, ptr %3, align 8, !tbaa !8
  store double %1, ptr %4, align 8, !tbaa !8
  %5 = load double, ptr %3, align 8, !tbaa !8
  %6 = call double @remainder(double noundef %5, double noundef 7.200000e+02) #6, !tbaa !10
  store double %6, ptr %3, align 8, !tbaa !8
  %7 = load double, ptr %4, align 8, !tbaa !8
  %8 = call double @remainder(double noundef %7, double noundef 7.200000e+02) #6, !tbaa !10
  store double %8, ptr %4, align 8, !tbaa !8
  %9 = load double, ptr %4, align 8, !tbaa !8
  %10 = fcmp oge double %9, 0.000000e+00
  br i1 %10, label %11, label %14

11:                                               ; preds = %2
  %12 = load double, ptr %4, align 8, !tbaa !8
  %13 = fcmp olt double %12, 3.600000e+02
  br label %14

14:                                               ; preds = %11, %2
  %15 = phi i1 [ false, %2 ], [ %13, %11 ]
  %16 = select i1 %15, i32 0, i32 1
  %17 = load double, ptr %3, align 8, !tbaa !8
  %18 = fcmp oge double %17, 0.000000e+00
  br i1 %18, label %19, label %22

19:                                               ; preds = %14
  %20 = load double, ptr %3, align 8, !tbaa !8
  %21 = fcmp olt double %20, 3.600000e+02
  br label %22

22:                                               ; preds = %19, %14
  %23 = phi i1 [ false, %14 ], [ %21, %19 ]
  %24 = select i1 %23, i32 0, i32 1
  %25 = sub nsw i32 %16, %24
  ret i32 %25
}

; Function Attrs: nounwind uwtable
define double @geod_gendirect(ptr noundef %0, double noundef %1, double noundef %2, double noundef %3, i32 noundef %4, double noundef %5, ptr noundef %6, ptr noundef %7, ptr noundef %8, ptr noundef %9, ptr noundef %10, ptr noundef %11, ptr noundef %12, ptr noundef %13) #0 {
  %15 = alloca ptr, align 8
  %16 = alloca double, align 8
  %17 = alloca double, align 8
  %18 = alloca double, align 8
  %19 = alloca i32, align 4
  %20 = alloca double, align 8
  %21 = alloca ptr, align 8
  %22 = alloca ptr, align 8
  %23 = alloca ptr, align 8
  %24 = alloca ptr, align 8
  %25 = alloca ptr, align 8
  %26 = alloca ptr, align 8
  %27 = alloca ptr, align 8
  %28 = alloca ptr, align 8
  %29 = alloca %struct.geod_geodesicline, align 8
  %30 = alloca i32, align 4
  store ptr %0, ptr %15, align 8, !tbaa !3
  store double %1, ptr %16, align 8, !tbaa !8
  store double %2, ptr %17, align 8, !tbaa !8
  store double %3, ptr %18, align 8, !tbaa !8
  store i32 %4, ptr %19, align 4, !tbaa !10
  store double %5, ptr %20, align 8, !tbaa !8
  store ptr %6, ptr %21, align 8, !tbaa !24
  store ptr %7, ptr %22, align 8, !tbaa !24
  store ptr %8, ptr %23, align 8, !tbaa !24
  store ptr %9, ptr %24, align 8, !tbaa !24
  store ptr %10, ptr %25, align 8, !tbaa !24
  store ptr %11, ptr %26, align 8, !tbaa !24
  store ptr %12, ptr %27, align 8, !tbaa !24
  store ptr %13, ptr %28, align 8, !tbaa !24
  call void @llvm.lifetime.start.p0(i64 512, ptr %29) #6
  call void @llvm.lifetime.start.p0(i64 4, ptr %30) #6
  %31 = load ptr, ptr %21, align 8, !tbaa !24
  %32 = icmp ne ptr %31, null
  %33 = select i1 %32, i32 128, i32 0
  %34 = load ptr, ptr %22, align 8, !tbaa !24
  %35 = icmp ne ptr %34, null
  %36 = select i1 %35, i32 264, i32 0
  %37 = or i32 %33, %36
  %38 = load ptr, ptr %23, align 8, !tbaa !24
  %39 = icmp ne ptr %38, null
  %40 = select i1 %39, i32 512, i32 0
  %41 = or i32 %37, %40
  %42 = load ptr, ptr %24, align 8, !tbaa !24
  %43 = icmp ne ptr %42, null
  %44 = select i1 %43, i32 1025, i32 0
  %45 = or i32 %41, %44
  %46 = load ptr, ptr %25, align 8, !tbaa !24
  %47 = icmp ne ptr %46, null
  %48 = select i1 %47, i32 4101, i32 0
  %49 = or i32 %45, %48
  %50 = load ptr, ptr %26, align 8, !tbaa !24
  %51 = icmp ne ptr %50, null
  br i1 %51, label %55, label %52

52:                                               ; preds = %14
  %53 = load ptr, ptr %27, align 8, !tbaa !24
  %54 = icmp ne ptr %53, null
  br label %55

55:                                               ; preds = %52, %14
  %56 = phi i1 [ true, %14 ], [ %54, %52 ]
  %57 = select i1 %56, i32 8197, i32 0
  %58 = or i32 %49, %57
  %59 = load ptr, ptr %28, align 8, !tbaa !24
  %60 = icmp ne ptr %59, null
  %61 = select i1 %60, i32 16400, i32 0
  %62 = or i32 %58, %61
  store i32 %62, ptr %30, align 4, !tbaa !10
  %63 = load ptr, ptr %15, align 8, !tbaa !3
  %64 = load double, ptr %16, align 8, !tbaa !8
  %65 = load double, ptr %17, align 8, !tbaa !8
  %66 = load double, ptr %18, align 8, !tbaa !8
  %67 = load i32, ptr %30, align 4, !tbaa !10
  %68 = load i32, ptr %19, align 4, !tbaa !10
  %69 = and i32 %68, 1
  %70 = icmp ne i32 %69, 0
  %71 = select i1 %70, i32 0, i32 2051
  %72 = or i32 %67, %71
  call void @geod_lineinit(ptr noundef %29, ptr noundef %63, double noundef %64, double noundef %65, double noundef %66, i32 noundef %72)
  %73 = load i32, ptr %19, align 4, !tbaa !10
  %74 = load double, ptr %20, align 8, !tbaa !8
  %75 = load ptr, ptr %21, align 8, !tbaa !24
  %76 = load ptr, ptr %22, align 8, !tbaa !24
  %77 = load ptr, ptr %23, align 8, !tbaa !24
  %78 = load ptr, ptr %24, align 8, !tbaa !24
  %79 = load ptr, ptr %25, align 8, !tbaa !24
  %80 = load ptr, ptr %26, align 8, !tbaa !24
  %81 = load ptr, ptr %27, align 8, !tbaa !24
  %82 = load ptr, ptr %28, align 8, !tbaa !24
  %83 = call double @geod_genposition(ptr noundef %29, i32 noundef %73, double noundef %74, ptr noundef %75, ptr noundef %76, ptr noundef %77, ptr noundef %78, ptr noundef %79, ptr noundef %80, ptr noundef %81, ptr noundef %82)
  call void @llvm.lifetime.end.p0(i64 4, ptr %30) #6
  call void @llvm.lifetime.end.p0(i64 512, ptr %29) #6
  ret double %83
}

; Function Attrs: nounwind uwtable
define void @geod_polygon_addedge(ptr noundef %0, ptr noundef %1, double noundef %2, double noundef %3) #0 {
  %5 = alloca ptr, align 8
  %6 = alloca ptr, align 8
  %7 = alloca double, align 8
  %8 = alloca double, align 8
  %9 = alloca double, align 8
  %10 = alloca double, align 8
  %11 = alloca double, align 8
  store ptr %0, ptr %5, align 8, !tbaa !3
  store ptr %1, ptr %6, align 8, !tbaa !58
  store double %2, ptr %7, align 8, !tbaa !8
  store double %3, ptr %8, align 8, !tbaa !8
  %12 = load ptr, ptr %6, align 8, !tbaa !58
  %13 = getelementptr inbounds nuw %struct.geod_polygon, ptr %12, i32 0, i32 8
  %14 = load i32, ptr %13, align 8, !tbaa !67
  %15 = icmp ne i32 %14, 0
  br i1 %15, label %16, label %68

16:                                               ; preds = %4
  call void @llvm.lifetime.start.p0(i64 8, ptr %9) #6
  store double 0.000000e+00, ptr %9, align 8, !tbaa !8
  call void @llvm.lifetime.start.p0(i64 8, ptr %10) #6
  store double 0.000000e+00, ptr %10, align 8, !tbaa !8
  call void @llvm.lifetime.start.p0(i64 8, ptr %11) #6
  store double 0.000000e+00, ptr %11, align 8, !tbaa !8
  %17 = load ptr, ptr %5, align 8, !tbaa !3
  %18 = load ptr, ptr %6, align 8, !tbaa !58
  %19 = getelementptr inbounds nuw %struct.geod_polygon, ptr %18, i32 0, i32 0
  %20 = load double, ptr %19, align 8, !tbaa !63
  %21 = load ptr, ptr %6, align 8, !tbaa !58
  %22 = getelementptr inbounds nuw %struct.geod_polygon, ptr %21, i32 0, i32 1
  %23 = load double, ptr %22, align 8, !tbaa !62
  %24 = load double, ptr %7, align 8, !tbaa !8
  %25 = load double, ptr %8, align 8, !tbaa !8
  %26 = load ptr, ptr %6, align 8, !tbaa !58
  %27 = getelementptr inbounds nuw %struct.geod_polygon, ptr %26, i32 0, i32 6
  %28 = load i32, ptr %27, align 8, !tbaa !60
  %29 = icmp ne i32 %28, 0
  br i1 %29, label %30, label %31

30:                                               ; preds = %16
  br label %32

31:                                               ; preds = %16
  br label %32

32:                                               ; preds = %31, %30
  %33 = phi ptr [ null, %30 ], [ %11, %31 ]
  %34 = call double @geod_gendirect(ptr noundef %17, double noundef %20, double noundef %23, double noundef %24, i32 noundef 32768, double noundef %25, ptr noundef %9, ptr noundef %10, ptr noundef null, ptr noundef null, ptr noundef null, ptr noundef null, ptr noundef null, ptr noundef %33)
  %35 = load ptr, ptr %6, align 8, !tbaa !58
  %36 = getelementptr inbounds nuw %struct.geod_polygon, ptr %35, i32 0, i32 5
  %37 = getelementptr inbounds [2 x double], ptr %36, i64 0, i64 0
  %38 = load double, ptr %8, align 8, !tbaa !8
  call void @accadd(ptr noundef %37, double noundef %38)
  %39 = load ptr, ptr %6, align 8, !tbaa !58
  %40 = getelementptr inbounds nuw %struct.geod_polygon, ptr %39, i32 0, i32 6
  %41 = load i32, ptr %40, align 8, !tbaa !60
  %42 = icmp ne i32 %41, 0
  br i1 %42, label %57, label %43

43:                                               ; preds = %32
  %44 = load ptr, ptr %6, align 8, !tbaa !58
  %45 = getelementptr inbounds nuw %struct.geod_polygon, ptr %44, i32 0, i32 4
  %46 = getelementptr inbounds [2 x double], ptr %45, i64 0, i64 0
  %47 = load double, ptr %11, align 8, !tbaa !8
  call void @accadd(ptr noundef %46, double noundef %47)
  %48 = load ptr, ptr %6, align 8, !tbaa !58
  %49 = getelementptr inbounds nuw %struct.geod_polygon, ptr %48, i32 0, i32 1
  %50 = load double, ptr %49, align 8, !tbaa !62
  %51 = load double, ptr %10, align 8, !tbaa !8
  %52 = call i32 @transitdirect(double noundef %50, double noundef %51)
  %53 = load ptr, ptr %6, align 8, !tbaa !58
  %54 = getelementptr inbounds nuw %struct.geod_polygon, ptr %53, i32 0, i32 7
  %55 = load i32, ptr %54, align 4, !tbaa !66
  %56 = add nsw i32 %55, %52
  store i32 %56, ptr %54, align 4, !tbaa !66
  br label %57

57:                                               ; preds = %43, %32
  %58 = load double, ptr %9, align 8, !tbaa !8
  %59 = load ptr, ptr %6, align 8, !tbaa !58
  %60 = getelementptr inbounds nuw %struct.geod_polygon, ptr %59, i32 0, i32 0
  store double %58, ptr %60, align 8, !tbaa !63
  %61 = load double, ptr %10, align 8, !tbaa !8
  %62 = load ptr, ptr %6, align 8, !tbaa !58
  %63 = getelementptr inbounds nuw %struct.geod_polygon, ptr %62, i32 0, i32 1
  store double %61, ptr %63, align 8, !tbaa !62
  %64 = load ptr, ptr %6, align 8, !tbaa !58
  %65 = getelementptr inbounds nuw %struct.geod_polygon, ptr %64, i32 0, i32 8
  %66 = load i32, ptr %65, align 8, !tbaa !67
  %67 = add i32 %66, 1
  store i32 %67, ptr %65, align 8, !tbaa !67
  call void @llvm.lifetime.end.p0(i64 8, ptr %11) #6
  call void @llvm.lifetime.end.p0(i64 8, ptr %10) #6
  call void @llvm.lifetime.end.p0(i64 8, ptr %9) #6
  br label %68

68:                                               ; preds = %57, %4
  ret void
}