; Function Attrs: nofree nounwind uwtable
define void @geod_polygon_addedge(ptr noundef readonly captures(none) %0, ptr noundef captures(none) %1, double noundef %2, double noundef %3) local_unnamed_addr #3 {
  %5 = alloca %struct.geod_geodesicline, align 8
  %6 = alloca double, align 8
  %7 = alloca double, align 8
  %8 = alloca double, align 8
  %9 = getelementptr inbounds nuw i8, ptr %1, i64 72
  %10 = load i32, ptr %9, align 8, !tbaa !58
  %.not = icmp eq i32 %10, 0
  br i1 %.not, label %42, label %11

11:                                               ; preds = %4
  call void @llvm.lifetime.start.p0(i64 8, ptr nonnull %6) #12
  store double 0.000000e+00, ptr %6, align 8, !tbaa !3
  call void @llvm.lifetime.start.p0(i64 8, ptr nonnull %7) #12
  store double 0.000000e+00, ptr %7, align 8, !tbaa !3
  call void @llvm.lifetime.start.p0(i64 8, ptr nonnull %8) #12
  store double 0.000000e+00, ptr %8, align 8, !tbaa !3
  %12 = load double, ptr %1, align 8, !tbaa !54
  %13 = getelementptr inbounds nuw i8, ptr %1, i64 8
  %14 = load double, ptr %13, align 8, !tbaa !53
  %15 = getelementptr inbounds nuw i8, ptr %1, i64 64
  %16 = load i32, ptr %15, align 8, !tbaa !51
  %.not16.not = icmp eq i32 %16, 0
  %. = select i1 %.not16.not, ptr %8, ptr null
  call void @llvm.lifetime.start.p0(i64 512, ptr nonnull %5) #12
  %17 = select i1 %.not16.not, i32 18843, i32 2443
  call void @geod_lineinit(ptr noundef nonnull %5, ptr noundef readonly %0, double noundef %12, double noundef %14, double noundef %2, i32 noundef %17)
  %18 = call double @geod_genposition(ptr noundef nonnull %5, i32 noundef 32768, double noundef %3, ptr noundef nonnull %6, ptr noundef nonnull %7, ptr noundef null, ptr noundef null, ptr noundef null, ptr noundef null, ptr noundef null, ptr noundef %.)
  call void @llvm.lifetime.end.p0(i64 512, ptr nonnull %5) #12
  %19 = getelementptr inbounds nuw i8, ptr %1, i64 48
  call fastcc void @accadd(ptr noundef nonnull %19, double noundef %3)
  %20 = load i32, ptr %15, align 8, !tbaa !51
  %.not17 = icmp eq i32 %20, 0
  br i1 %.not17, label %21, label %._crit_edge

._crit_edge:                                      ; preds = %11
  %.pre = load double, ptr %7, align 8, !tbaa !3
  br label %37

21:                                               ; preds = %11
  %22 = getelementptr inbounds nuw i8, ptr %1, i64 32
  %23 = load double, ptr %8, align 8, !tbaa !3
  call fastcc void @accadd(ptr noundef nonnull %22, double noundef %23)
  %24 = load double, ptr %13, align 8, !tbaa !53
  %25 = load double, ptr %7, align 8, !tbaa !3
  %26 = call double @remainder(double noundef %24, double noundef 7.200000e+02) #12, !tbaa !15
  %27 = call double @remainder(double noundef %25, double noundef 7.200000e+02) #12, !tbaa !15
  %28 = fcmp ult double %27, 0.000000e+00
  %29 = fcmp uge double %27, 3.600000e+02
  %.not7.i = or i1 %28, %29
  %30 = zext i1 %.not7.i to i32
  %31 = fcmp ult double %26, 0.000000e+00
  %32 = fcmp uge double %26, 3.600000e+02
  %.not9.i = or i1 %31, %32
  %.neg.i = sext i1 %.not9.i to i32
  %33 = getelementptr inbounds nuw i8, ptr %1, i64 68
  %34 = load i32, ptr %33, align 4, !tbaa !57
  %35 = add i32 %34, %.neg.i
  %36 = add i32 %35, %30
  store i32 %36, ptr %33, align 4, !tbaa !57
  br label %37

37:                                               ; preds = %._crit_edge, %21
  %38 = phi double [ %.pre, %._crit_edge ], [ %25, %21 ]
  %39 = load double, ptr %6, align 8, !tbaa !3
  store double %39, ptr %1, align 8, !tbaa !54
  store double %38, ptr %13, align 8, !tbaa !53
  %40 = load i32, ptr %9, align 8, !tbaa !58
  %41 = add i32 %40, 1
  store i32 %41, ptr %9, align 8, !tbaa !58
  call void @llvm.lifetime.end.p0(i64 8, ptr nonnull %8) #12
  call void @llvm.lifetime.end.p0(i64 8, ptr nonnull %7) #12
  call void @llvm.lifetime.end.p0(i64 8, ptr nonnull %6) #12
  br label %42

42:                                               ; preds = %37, %4
  ret void
}